(lp1
(lp2
(lp3
(lp4
Vlnorm
p5
a(dp6
Vkwargs
p7
(dp8
Vinker_shape
p9
(lp10
I5
aI5
asVoutker_shape
p11
(lp12
I5
aI5
asVstretch
p13
F0.10000000000000001
sVthreshold
p14
I10
sVremove_mean
p15
I0
ssaaa(lp16
(lp17
Vfbcorr
p18
a(dp19
Vinitialize
p20
(dp21
Vn_filters
p22
I32
sVfilter_shape
p23
(lp24
I3
aI3
asVgenerate
p25
(lp26
Vrandom:uniform
p27
a(dp28
Vrseed
p29
I15
sassVkwargs
p30
(dp31
Vmax_out
p32
I1
sVmin_out
p33
I0
ssaa(lp34
Vlpool
p35
a(dp36
Vkwargs
p37
(dp38
Vstride
p39
I2
sVorder
p40
I2
sVker_shape
p41
(lp42
I7
aI7
assaa(lp43
Vlnorm
p44
a(dp45
Vkwargs
p46
(dp47
Vinker_shape
p48
(lp49
I7
aI7
asVoutker_shape
p50
(lp51
I7
aI7
asVstretch
p52
F0.10000000000000001
sVthreshold
p53
I10
sVremove_mean
p54
I1
ssaaa(lp55
(lp56
Vfbcorr
p57
a(dp58
Vinitialize
p59
(dp60
Vn_filters
p61
I128
sVfilter_shape
p62
(lp63
I3
aI3
asVgenerate
p64
(lp65
Vrandom:uniform
p66
a(dp67
Vrseed
p68
I25
sassVkwargs
p69
(dp70
Vmax_out
p71
I1
sVmin_out
p72
Nssaa(lp73
Vlpool
p74
a(dp75
Vkwargs
p76
(dp77
Vstride
p78
I2
sVorder
p79
I2
sVker_shape
p80
(lp81
I9
aI9
assaa(lp82
Vlnorm
p83
a(dp84
Vkwargs
p85
(dp86
Vinker_shape
p87
(lp88
I7
aI7
asVoutker_shape
p89
(lp90
I7
aI7
asVstretch
p91
I1
sVthreshold
p92
F0.10000000000000001
sVremove_mean
p93
I0
ssaaa(lp94
(lp95
Vfbcorr
p96
a(dp97
Vinitialize
p98
(dp99
Vn_filters
p100
I256
sVfilter_shape
p101
(lp102
I5
aI5
asVgenerate
p103
(lp104
Vrandom:uniform
p105
a(dp106
Vrseed
p107
I34
sassVkwargs
p108
(dp109
Vmax_out
p110
I1
sVmin_out
p111
Nssaa(lp112
Vlpool
p113
a(dp114
Vkwargs
p115
(dp116
Vstride
p117
I2
sVorder
p118
I10
sVker_shape
p119
(lp120
I3
aI3
assaa(lp121
Vlnorm
p122
a(dp123
Vkwargs
p124
(dp125
Vinker_shape
p126
(lp127
I5
aI5
asVoutker_shape
p128
(lp129
I5
aI5
asVstretch
p130
I1
sVthreshold
p131
F0.10000000000000001
sVremove_mean
p132
I1
ssaaaa(lp133
(lp134
(lp135
Vlnorm
p136
a(dp137
Vkwargs
p138
(dp139
Vinker_shape
p140
(lp141
I5
aI5
asVoutker_shape
p142
(lp143
I5
aI5
asVstretch
p144
I1
sVthreshold
p145
F0.10000000000000001
sVremove_mean
p146
I1
ssaaa(lp147
(lp148
Vfbcorr
p149
a(dp150
Vinitialize
p151
(dp152
Vn_filters
p153
I64
sVfilter_shape
p154
(lp155
I5
aI5
asVgenerate
p156
(lp157
Vrandom:uniform
p158
a(dp159
Vrseed
p160
I13
sassVkwargs
p161
(dp162
Vmax_out
p163
I1
sVmin_out
p164
I0
ssaa(lp165
Vlpool
p166
a(dp167
Vkwargs
p168
(dp169
Vstride
p170
I2
sVorder
p171
I1
sVker_shape
p172
(lp173
I9
aI9
assaa(lp174
Vlnorm
p175
a(dp176
Vkwargs
p177
(dp178
Vinker_shape
p179
(lp180
I3
aI3
asVoutker_shape
p181
(lp182
I3
aI3
asVstretch
p183
I1
sVthreshold
p184
I1
sVremove_mean
p185
I0
ssaaa(lp186
(lp187
Vfbcorr
p188
a(dp189
Vinitialize
p190
(dp191
Vn_filters
p192
I64
sVfilter_shape
p193
(lp194
I3
aI3
asVgenerate
p195
(lp196
Vrandom:uniform
p197
a(dp198
Vrseed
p199
I23
sassVkwargs
p200
(dp201
Vmax_out
p202
NsVmin_out
p203
I0
ssaa(lp204
Vlpool
p205
a(dp206
Vkwargs
p207
(dp208
Vstride
p209
I2
sVorder
p210
I1
sVker_shape
p211
(lp212
I3
aI3
assaa(lp213
Vlnorm
p214
a(dp215
Vkwargs
p216
(dp217
Vinker_shape
p218
(lp219
I5
aI5
asVoutker_shape
p220
(lp221
I5
aI5
asVstretch
p222
F0.10000000000000001
sVthreshold
p223
F0.10000000000000001
sVremove_mean
p224
I0
ssaaa(lp225
(lp226
Vfbcorr
p227
a(dp228
Vinitialize
p229
(dp230
Vn_filters
p231
I256
sVfilter_shape
p232
(lp233
I3
aI3
asVgenerate
p234
(lp235
Vrandom:uniform
p236
a(dp237
Vrseed
p238
I33
sassVkwargs
p239
(dp240
Vmax_out
p241
I1
sVmin_out
p242
I0
ssaa(lp243
Vlpool
p244
a(dp245
Vkwargs
p246
(dp247
Vstride
p248
I2
sVorder
p249
I1
sVker_shape
p250
(lp251
I3
aI3
assaa(lp252
Vlnorm
p253
a(dp254
Vkwargs
p255
(dp256
Vinker_shape
p257
(lp258
I5
aI5
asVoutker_shape
p259
(lp260
I5
aI5
asVstretch
p261
F0.10000000000000001
sVthreshold
p262
I10
sVremove_mean
p263
I1
ssaaaa(lp264
(lp265
(lp266
Vlnorm
p267
a(dp268
Vkwargs
p269
(dp270
Vinker_shape
p271
(lp272
I7
aI7
asVoutker_shape
p273
(lp274
I7
aI7
asVstretch
p275
I1
sVthreshold
p276
I1
sVremove_mean
p277
I1
ssaaa(lp278
(lp279
Vfbcorr
p280
a(dp281
Vinitialize
p282
(dp283
Vn_filters
p284
I16
sVfilter_shape
p285
(lp286
I5
aI5
asVgenerate
p287
(lp288
Vrandom:uniform
p289
a(dp290
Vrseed
p291
I15
sassVkwargs
p292
(dp293
Vmax_out
p294
NsVmin_out
p295
I0
ssaa(lp296
Vlpool
p297
a(dp298
Vkwargs
p299
(dp300
Vstride
p301
I2
sVorder
p302
I1
sVker_shape
p303
(lp304
I5
aI5
assaa(lp305
Vlnorm
p306
a(dp307
Vkwargs
p308
(dp309
Vinker_shape
p310
(lp311
I3
aI3
asVoutker_shape
p312
(lp313
I3
aI3
asVstretch
p314
F0.10000000000000001
sVthreshold
p315
I10
sVremove_mean
p316
I1
ssaaa(lp317
(lp318
Vfbcorr
p319
a(dp320
Vinitialize
p321
(dp322
Vn_filters
p323
I128
sVfilter_shape
p324
(lp325
I3
aI3
asVgenerate
p326
(lp327
Vrandom:uniform
p328
a(dp329
Vrseed
p330
I24
sassVkwargs
p331
(dp332
Vmax_out
p333
I1
sVmin_out
p334
Nssaa(lp335
Vlpool
p336
a(dp337
Vkwargs
p338
(dp339
Vstride
p340
I2
sVorder
p341
I2
sVker_shape
p342
(lp343
I9
aI9
assaa(lp344
Vlnorm
p345
a(dp346
Vkwargs
p347
(dp348
Vinker_shape
p349
(lp350
I3
aI3
asVoutker_shape
p351
(lp352
I3
aI3
asVstretch
p353
I1
sVthreshold
p354
F0.10000000000000001
sVremove_mean
p355
I0
ssaaa(lp356
(lp357
Vfbcorr
p358
a(dp359
Vinitialize
p360
(dp361
Vn_filters
p362
I128
sVfilter_shape
p363
(lp364
I7
aI7
asVgenerate
p365
(lp366
Vrandom:uniform
p367
a(dp368
Vrseed
p369
I32
sassVkwargs
p370
(dp371
Vmax_out
p372
NsVmin_out
p373
Nssaa(lp374
Vlpool
p375
a(dp376
Vkwargs
p377
(dp378
Vstride
p379
I2
sVorder
p380
I1
sVker_shape
p381
(lp382
I3
aI3
assaa(lp383
Vlnorm
p384
a(dp385
Vkwargs
p386
(dp387
Vinker_shape
p388
(lp389
I3
aI3
asVoutker_shape
p390
(lp391
I3
aI3
asVstretch
p392
I1
sVthreshold
p393
F0.10000000000000001
sVremove_mean
p394
I1
ssaaaa(lp395
(lp396
(lp397
Vlnorm
p398
a(dp399
Vkwargs
p400
(dp401
Vinker_shape
p402
(lp403
I5
aI5
asVoutker_shape
p404
(lp405
I5
aI5
asVstretch
p406
F0.10000000000000001
sVthreshold
p407
I1
sVremove_mean
p408
I0
ssaaa(lp409
(lp410
Vfbcorr
p411
a(dp412
Vinitialize
p413
(dp414
Vn_filters
p415
I64
sVfilter_shape
p416
(lp417
I3
aI3
asVgenerate
p418
(lp419
Vrandom:uniform
p420
a(dp421
Vrseed
p422
I11
sassVkwargs
p423
(dp424
Vmax_out
p425
NsVmin_out
p426
I0
ssaa(lp427
Vlpool
p428
a(dp429
Vkwargs
p430
(dp431
Vstride
p432
I2
sVorder
p433
I1
sVker_shape
p434
(lp435
I5
aI5
assaa(lp436
Vlnorm
p437
a(dp438
Vkwargs
p439
(dp440
Vinker_shape
p441
(lp442
I9
aI9
asVoutker_shape
p443
(lp444
I9
aI9
asVstretch
p445
F0.10000000000000001
sVthreshold
p446
F0.10000000000000001
sVremove_mean
p447
I1
ssaaa(lp448
(lp449
Vfbcorr
p450
a(dp451
Vinitialize
p452
(dp453
Vn_filters
p454
I32
sVfilter_shape
p455
(lp456
I7
aI7
asVgenerate
p457
(lp458
Vrandom:uniform
p459
a(dp460
Vrseed
p461
I25
sassVkwargs
p462
(dp463
Vmax_out
p464
I1
sVmin_out
p465
I0
ssaa(lp466
Vlpool
p467
a(dp468
Vkwargs
p469
(dp470
Vstride
p471
I2
sVorder
p472
I1
sVker_shape
p473
(lp474
I7
aI7
assaa(lp475
Vlnorm
p476
a(dp477
Vkwargs
p478
(dp479
Vinker_shape
p480
(lp481
I3
aI3
asVoutker_shape
p482
(lp483
I3
aI3
asVstretch
p484
F0.10000000000000001
sVthreshold
p485
I10
sVremove_mean
p486
I0
ssaaa(lp487
(lp488
Vfbcorr
p489
a(dp490
Vinitialize
p491
(dp492
Vn_filters
p493
I256
sVfilter_shape
p494
(lp495
I9
aI9
asVgenerate
p496
(lp497
Vrandom:uniform
p498
a(dp499
Vrseed
p500
I34
sassVkwargs
p501
(dp502
Vmax_out
p503
I1
sVmin_out
p504
Nssaa(lp505
Vlpool
p506
a(dp507
Vkwargs
p508
(dp509
Vstride
p510
I2
sVorder
p511
I2
sVker_shape
p512
(lp513
I3
aI3
assaa(lp514
Vlnorm
p515
a(dp516
Vkwargs
p517
(dp518
Vinker_shape
p519
(lp520
I7
aI7
asVoutker_shape
p521
(lp522
I7
aI7
asVstretch
p523
F0.10000000000000001
sVthreshold
p524
I1
sVremove_mean
p525
I1
ssaaaa(lp526
(lp527
(lp528
Vlnorm
p529
a(dp530
Vkwargs
p531
(dp532
Vinker_shape
p533
(lp534
I3
aI3
asVoutker_shape
p535
(lp536
I3
aI3
asVstretch
p537
I1
sVthreshold
p538
I10
sVremove_mean
p539
I0
ssaaa(lp540
(lp541
Vfbcorr
p542
a(dp543
Vinitialize
p544
(dp545
Vn_filters
p546
I16
sVfilter_shape
p547
(lp548
I7
aI7
asVgenerate
p549
(lp550
Vrandom:uniform
p551
a(dp552
Vrseed
p553
I12
sassVkwargs
p554
(dp555
Vmax_out
p556
NsVmin_out
p557
I0
ssaa(lp558
Vlpool
p559
a(dp560
Vkwargs
p561
(dp562
Vstride
p563
I2
sVorder
p564
I1
sVker_shape
p565
(lp566
I7
aI7
assaa(lp567
Vlnorm
p568
a(dp569
Vkwargs
p570
(dp571
Vinker_shape
p572
(lp573
I9
aI9
asVoutker_shape
p574
(lp575
I9
aI9
asVstretch
p576
I1
sVthreshold
p577
I1
sVremove_mean
p578
I0
ssaaa(lp579
(lp580
Vfbcorr
p581
a(dp582
Vinitialize
p583
(dp584
Vn_filters
p585
I64
sVfilter_shape
p586
(lp587
I7
aI7
asVgenerate
p588
(lp589
Vrandom:uniform
p590
a(dp591
Vrseed
p592
I24
sassVkwargs
p593
(dp594
Vmax_out
p595
NsVmin_out
p596
Nssaa(lp597
Vlpool
p598
a(dp599
Vkwargs
p600
(dp601
Vstride
p602
I2
sVorder
p603
I1
sVker_shape
p604
(lp605
I3
aI3
assaa(lp606
Vlnorm
p607
a(dp608
Vkwargs
p609
(dp610
Vinker_shape
p611
(lp612
I5
aI5
asVoutker_shape
p613
(lp614
I5
aI5
asVstretch
p615
I1
sVthreshold
p616
I10
sVremove_mean
p617
I0
ssaaa(lp618
(lp619
Vfbcorr
p620
a(dp621
Vinitialize
p622
(dp623
Vn_filters
p624
I256
sVfilter_shape
p625
(lp626
I5
aI5
asVgenerate
p627
(lp628
Vrandom:uniform
p629
a(dp630
Vrseed
p631
I31
sassVkwargs
p632
(dp633
Vmax_out
p634
NsVmin_out
p635
I0
ssaa(lp636
Vlpool
p637
a(dp638
Vkwargs
p639
(dp640
Vstride
p641
I2
sVorder
p642
I2
sVker_shape
p643
(lp644
I5
aI5
assaa(lp645
Vlnorm
p646
a(dp647
Vkwargs
p648
(dp649
Vinker_shape
p650
(lp651
I5
aI5
asVoutker_shape
p652
(lp653
I5
aI5
asVstretch
p654
F0.10000000000000001
sVthreshold
p655
I1
sVremove_mean
p656
I0
ssaaaa(lp657
(lp658
(lp659
Vlnorm
p660
a(dp661
Vkwargs
p662
(dp663
Vinker_shape
p664
(lp665
I7
aI7
asVoutker_shape
p666
(lp667
I7
aI7
asVstretch
p668
F0.10000000000000001
sVthreshold
p669
I1
sVremove_mean
p670
I0
ssaaa(lp671
(lp672
Vfbcorr
p673
a(dp674
Vinitialize
p675
(dp676
Vn_filters
p677
I32
sVfilter_shape
p678
(lp679
I7
aI7
asVgenerate
p680
(lp681
Vrandom:uniform
p682
a(dp683
Vrseed
p684
I14
sassVkwargs
p685
(dp686
Vmax_out
p687
I1
sVmin_out
p688
I0
ssaa(lp689
Vlpool
p690
a(dp691
Vkwargs
p692
(dp693
Vstride
p694
I2
sVorder
p695
I10
sVker_shape
p696
(lp697
I3
aI3
assaa(lp698
Vlnorm
p699
a(dp700
Vkwargs
p701
(dp702
Vinker_shape
p703
(lp704
I3
aI3
asVoutker_shape
p705
(lp706
I3
aI3
asVstretch
p707
I10
sVthreshold
p708
I1
sVremove_mean
p709
I1
ssaaa(lp710
(lp711
Vfbcorr
p712
a(dp713
Vinitialize
p714
(dp715
Vn_filters
p716
I128
sVfilter_shape
p717
(lp718
I5
aI5
asVgenerate
p719
(lp720
Vrandom:uniform
p721
a(dp722
Vrseed
p723
I24
sassVkwargs
p724
(dp725
Vmax_out
p726
I1
sVmin_out
p727
I0
ssaa(lp728
Vlpool
p729
a(dp730
Vkwargs
p731
(dp732
Vstride
p733
I2
sVorder
p734
I1
sVker_shape
p735
(lp736
I3
aI3
assaa(lp737
Vlnorm
p738
a(dp739
Vkwargs
p740
(dp741
Vinker_shape
p742
(lp743
I3
aI3
asVoutker_shape
p744
(lp745
I3
aI3
asVstretch
p746
F0.10000000000000001
sVthreshold
p747
I10
sVremove_mean
p748
I0
ssaaa(lp749
(lp750
Vfbcorr
p751
a(dp752
Vinitialize
p753
(dp754
Vn_filters
p755
I64
sVfilter_shape
p756
(lp757
I5
aI5
asVgenerate
p758
(lp759
Vrandom:uniform
p760
a(dp761
Vrseed
p762
I34
sassVkwargs
p763
(dp764
Vmax_out
p765
NsVmin_out
p766
I0
ssaa(lp767
Vlpool
p768
a(dp769
Vkwargs
p770
(dp771
Vstride
p772
I2
sVorder
p773
I2
sVker_shape
p774
(lp775
I3
aI3
assaa(lp776
Vlnorm
p777
a(dp778
Vkwargs
p779
(dp780
Vinker_shape
p781
(lp782
I5
aI5
asVoutker_shape
p783
(lp784
I5
aI5
asVstretch
p785
I1
sVthreshold
p786
I10
sVremove_mean
p787
I0
ssaaaa(lp788
(lp789
(lp790
Vlnorm
p791
a(dp792
Vkwargs
p793
(dp794
Vinker_shape
p795
(lp796
I9
aI9
asVoutker_shape
p797
(lp798
I9
aI9
asVstretch
p799
F0.10000000000000001
sVthreshold
p800
I10
sVremove_mean
p801
I0
ssaaa(lp802
(lp803
Vfbcorr
p804
a(dp805
Vinitialize
p806
(dp807
Vn_filters
p808
I64
sVfilter_shape
p809
(lp810
I7
aI7
asVgenerate
p811
(lp812
Vrandom:uniform
p813
a(dp814
Vrseed
p815
I11
sassVkwargs
p816
(dp817
Vmax_out
p818
NsVmin_out
p819
I0
ssaa(lp820
Vlpool
p821
a(dp822
Vkwargs
p823
(dp824
Vstride
p825
I2
sVorder
p826
I2
sVker_shape
p827
(lp828
I9
aI9
assaa(lp829
Vlnorm
p830
a(dp831
Vkwargs
p832
(dp833
Vinker_shape
p834
(lp835
I3
aI3
asVoutker_shape
p836
(lp837
I3
aI3
asVstretch
p838
I1
sVthreshold
p839
F0.10000000000000001
sVremove_mean
p840
I1
ssaaa(lp841
(lp842
Vfbcorr
p843
a(dp844
Vinitialize
p845
(dp846
Vn_filters
p847
I128
sVfilter_shape
p848
(lp849
I7
aI7
asVgenerate
p850
(lp851
Vrandom:uniform
p852
a(dp853
Vrseed
p854
I24
sassVkwargs
p855
(dp856
Vmax_out
p857
NsVmin_out
p858
Nssaa(lp859
Vlpool
p860
a(dp861
Vkwargs
p862
(dp863
Vstride
p864
I2
sVorder
p865
I2
sVker_shape
p866
(lp867
I3
aI3
assaa(lp868
Vlnorm
p869
a(dp870
Vkwargs
p871
(dp872
Vinker_shape
p873
(lp874
I3
aI3
asVoutker_shape
p875
(lp876
I3
aI3
asVstretch
p877
I1
sVthreshold
p878
I10
sVremove_mean
p879
I1
ssaaa(lp880
(lp881
Vfbcorr
p882
a(dp883
Vinitialize
p884
(dp885
Vn_filters
p886
I256
sVfilter_shape
p887
(lp888
I5
aI5
asVgenerate
p889
(lp890
Vrandom:uniform
p891
a(dp892
Vrseed
p893
I32
sassVkwargs
p894
(dp895
Vmax_out
p896
I1
sVmin_out
p897
Nssaa(lp898
Vlpool
p899
a(dp900
Vkwargs
p901
(dp902
Vstride
p903
I2
sVorder
p904
I10
sVker_shape
p905
(lp906
I3
aI3
assaa(lp907
Vlnorm
p908
a(dp909
Vkwargs
p910
(dp911
Vinker_shape
p912
(lp913
I7
aI7
asVoutker_shape
p914
(lp915
I7
aI7
asVstretch
p916
I1
sVthreshold
p917
F0.10000000000000001
sVremove_mean
p918
I1
ssaaaa(lp919
(lp920
(lp921
Vlnorm
p922
a(dp923
Vkwargs
p924
(dp925
Vinker_shape
p926
(lp927
I9
aI9
asVoutker_shape
p928
(lp929
I9
aI9
asVstretch
p930
F0.10000000000000001
sVthreshold
p931
I10
sVremove_mean
p932
I0
ssaaa(lp933
(lp934
Vfbcorr
p935
a(dp936
Vinitialize
p937
(dp938
Vn_filters
p939
I16
sVfilter_shape
p940
(lp941
I5
aI5
asVgenerate
p942
(lp943
Vrandom:uniform
p944
a(dp945
Vrseed
p946
I12
sassVkwargs
p947
(dp948
Vmax_out
p949
NsVmin_out
p950
I0
ssaa(lp951
Vlpool
p952
a(dp953
Vkwargs
p954
(dp955
Vstride
p956
I2
sVorder
p957
I10
sVker_shape
p958
(lp959
I5
aI5
assaa(lp960
Vlnorm
p961
a(dp962
Vkwargs
p963
(dp964
Vinker_shape
p965
(lp966
I3
aI3
asVoutker_shape
p967
(lp968
I3
aI3
asVstretch
p969
I10
sVthreshold
p970
F0.10000000000000001
sVremove_mean
p971
I0
ssaaa(lp972
(lp973
Vfbcorr
p974
a(dp975
Vinitialize
p976
(dp977
Vn_filters
p978
I32
sVfilter_shape
p979
(lp980
I5
aI5
asVgenerate
p981
(lp982
Vrandom:uniform
p983
a(dp984
Vrseed
p985
I22
sassVkwargs
p986
(dp987
Vmax_out
p988
I1
sVmin_out
p989
Nssaa(lp990
Vlpool
p991
a(dp992
Vkwargs
p993
(dp994
Vstride
p995
I2
sVorder
p996
I1
sVker_shape
p997
(lp998
I5
aI5
assaa(lp999
Vlnorm
p1000
a(dp1001
Vkwargs
p1002
(dp1003
Vinker_shape
p1004
(lp1005
I5
aI5
asVoutker_shape
p1006
(lp1007
I5
aI5
asVstretch
p1008
I1
sVthreshold
p1009
F0.10000000000000001
sVremove_mean
p1010
I1
ssaaa(lp1011
(lp1012
Vfbcorr
p1013
a(dp1014
Vinitialize
p1015
(dp1016
Vn_filters
p1017
I256
sVfilter_shape
p1018
(lp1019
I3
aI3
asVgenerate
p1020
(lp1021
Vrandom:uniform
p1022
a(dp1023
Vrseed
p1024
I35
sassVkwargs
p1025
(dp1026
Vmax_out
p1027
I1
sVmin_out
p1028
Nssaa(lp1029
Vlpool
p1030
a(dp1031
Vkwargs
p1032
(dp1033
Vstride
p1034
I2
sVorder
p1035
I10
sVker_shape
p1036
(lp1037
I9
aI9
assaa(lp1038
Vlnorm
p1039
a(dp1040
Vkwargs
p1041
(dp1042
Vinker_shape
p1043
(lp1044
I3
aI3
asVoutker_shape
p1045
(lp1046
I3
aI3
asVstretch
p1047
F0.10000000000000001
sVthreshold
p1048
I1
sVremove_mean
p1049
I1
ssaaaa(lp1050
(lp1051
(lp1052
Vlnorm
p1053
a(dp1054
Vkwargs
p1055
(dp1056
Vinker_shape
p1057
(lp1058
I5
aI5
asVoutker_shape
p1059
(lp1060
I5
aI5
asVstretch
p1061
F0.10000000000000001
sVthreshold
p1062
I10
sVremove_mean
p1063
I0
ssaaa(lp1064
(lp1065
Vfbcorr
p1066
a(dp1067
Vinitialize
p1068
(dp1069
Vn_filters
p1070
I32
sVfilter_shape
p1071
(lp1072
I9
aI9
asVgenerate
p1073
(lp1074
Vrandom:uniform
p1075
a(dp1076
Vrseed
p1077
I14
sassVkwargs
p1078
(dp1079
Vmax_out
p1080
NsVmin_out
p1081
I0
ssaa(lp1082
Vlpool
p1083
a(dp1084
Vkwargs
p1085
(dp1086
Vstride
p1087
I2
sVorder
p1088
I10
sVker_shape
p1089
(lp1090
I9
aI9
assaa(lp1091
Vlnorm
p1092
a(dp1093
Vkwargs
p1094
(dp1095
Vinker_shape
p1096
(lp1097
I7
aI7
asVoutker_shape
p1098
(lp1099
I7
aI7
asVstretch
p1100
F0.10000000000000001
sVthreshold
p1101
F0.10000000000000001
sVremove_mean
p1102
I0
ssaaa(lp1103
(lp1104
Vfbcorr
p1105
a(dp1106
Vinitialize
p1107
(dp1108
Vn_filters
p1109
I16
sVfilter_shape
p1110
(lp1111
I7
aI7
asVgenerate
p1112
(lp1113
Vrandom:uniform
p1114
a(dp1115
Vrseed
p1116
I23
sassVkwargs
p1117
(dp1118
Vmax_out
p1119
I1
sVmin_out
p1120
Nssaa(lp1121
Vlpool
p1122
a(dp1123
Vkwargs
p1124
(dp1125
Vstride
p1126
I2
sVorder
p1127
I1
sVker_shape
p1128
(lp1129
I7
aI7
assaa(lp1130
Vlnorm
p1131
a(dp1132
Vkwargs
p1133
(dp1134
Vinker_shape
p1135
(lp1136
I5
aI5
asVoutker_shape
p1137
(lp1138
I5
aI5
asVstretch
p1139
F0.10000000000000001
sVthreshold
p1140
I1
sVremove_mean
p1141
I1
ssaaa(lp1142
(lp1143
Vfbcorr
p1144
a(dp1145
Vinitialize
p1146
(dp1147
Vn_filters
p1148
I32
sVfilter_shape
p1149
(lp1150
I5
aI5
asVgenerate
p1151
(lp1152
Vrandom:uniform
p1153
a(dp1154
Vrseed
p1155
I31
sassVkwargs
p1156
(dp1157
Vmax_out
p1158
NsVmin_out
p1159
Nssaa(lp1160
Vlpool
p1161
a(dp1162
Vkwargs
p1163
(dp1164
Vstride
p1165
I2
sVorder
p1166
I1
sVker_shape
p1167
(lp1168
I3
aI3
assaa(lp1169
Vlnorm
p1170
a(dp1171
Vkwargs
p1172
(dp1173
Vinker_shape
p1174
(lp1175
I3
aI3
asVoutker_shape
p1176
(lp1177
I3
aI3
asVstretch
p1178
F0.10000000000000001
sVthreshold
p1179
F0.10000000000000001
sVremove_mean
p1180
I1
ssaaaa(lp1181
(lp1182
(lp1183
Vlnorm
p1184
a(dp1185
Vkwargs
p1186
(dp1187
Vinker_shape
p1188
(lp1189
I3
aI3
asVoutker_shape
p1190
(lp1191
I3
aI3
asVstretch
p1192
F0.10000000000000001
sVthreshold
p1193
I1
sVremove_mean
p1194
I0
ssaaa(lp1195
(lp1196
Vfbcorr
p1197
a(dp1198
Vinitialize
p1199
(dp1200
Vn_filters
p1201
I32
sVfilter_shape
p1202
(lp1203
I5
aI5
asVgenerate
p1204
(lp1205
Vrandom:uniform
p1206
a(dp1207
Vrseed
p1208
I14
sassVkwargs
p1209
(dp1210
Vmax_out
p1211
I1
sVmin_out
p1212
I0
ssaa(lp1213
Vlpool
p1214
a(dp1215
Vkwargs
p1216
(dp1217
Vstride
p1218
I2
sVorder
p1219
I1
sVker_shape
p1220
(lp1221
I5
aI5
assaa(lp1222
Vlnorm
p1223
a(dp1224
Vkwargs
p1225
(dp1226
Vinker_shape
p1227
(lp1228
I5
aI5
asVoutker_shape
p1229
(lp1230
I5
aI5
asVstretch
p1231
I10
sVthreshold
p1232
I1
sVremove_mean
p1233
I1
ssaaa(lp1234
(lp1235
Vfbcorr
p1236
a(dp1237
Vinitialize
p1238
(dp1239
Vn_filters
p1240
I128
sVfilter_shape
p1241
(lp1242
I3
aI3
asVgenerate
p1243
(lp1244
Vrandom:uniform
p1245
a(dp1246
Vrseed
p1247
I23
sassVkwargs
p1248
(dp1249
Vmax_out
p1250
NsVmin_out
p1251
I0
ssaa(lp1252
Vlpool
p1253
a(dp1254
Vkwargs
p1255
(dp1256
Vstride
p1257
I2
sVorder
p1258
I2
sVker_shape
p1259
(lp1260
I5
aI5
assaa(lp1261
Vlnorm
p1262
a(dp1263
Vkwargs
p1264
(dp1265
Vinker_shape
p1266
(lp1267
I5
aI5
asVoutker_shape
p1268
(lp1269
I5
aI5
asVstretch
p1270
I10
sVthreshold
p1271
I1
sVremove_mean
p1272
I1
ssaaa(lp1273
(lp1274
Vfbcorr
p1275
a(dp1276
Vinitialize
p1277
(dp1278
Vn_filters
p1279
I128
sVfilter_shape
p1280
(lp1281
I3
aI3
asVgenerate
p1282
(lp1283
Vrandom:uniform
p1284
a(dp1285
Vrseed
p1286
I34
sassVkwargs
p1287
(dp1288
Vmax_out
p1289
NsVmin_out
p1290
I0
ssaa(lp1291
Vlpool
p1292
a(dp1293
Vkwargs
p1294
(dp1295
Vstride
p1296
I2
sVorder
p1297
I1
sVker_shape
p1298
(lp1299
I3
aI3
assaa(lp1300
Vlnorm
p1301
a(dp1302
Vkwargs
p1303
(dp1304
Vinker_shape
p1305
(lp1306
I3
aI3
asVoutker_shape
p1307
(lp1308
I3
aI3
asVstretch
p1309
I1
sVthreshold
p1310
F0.10000000000000001
sVremove_mean
p1311
I0
ssaaaa.